target datalayout = "e-m:e-p270:32:32-p271:32:32-p272:64:64-i64:64-i128:128-f80:128-n8:16:32:64-S128"
target triple = "x86_64-pc-linux-gnu"

%class.StubCodeMark = type { ptr, ptr }
%class.StubCodeGenerator = type { ptr, i8, ptr }
%class.CodeSection = type { ptr, ptr, ptr, ptr, ptr, ptr, ptr, ptr, i8, i8, i32, i8, ptr }
%class.AbstractAssembler = type { ptr, ptr, ptr }

@.str = private unnamed_addr constant [13 x i8] c"StubRoutines\00", align 1
@CodeEntryAlignment = external global i64, align 8

; Function Attrs: mustprogress nounwind uwtable
define linkonce_odr hidden noundef ptr @_ZNK11CodeSection3endEv(ptr noundef nonnull align 8 dereferenceable(88) %0) #1 comdat align 2 {
  %2 = alloca ptr, align 8
  store ptr %0, ptr %2, align 8
  %3 = load ptr, ptr %2, align 8
  %4 = getelementptr inbounds %class.CodeSection, ptr %3, i32 0, i32 2
  %5 = load ptr, ptr %4, align 8
  ret ptr %5
}

; Function Attrs: mustprogress nounwind uwtable
define linkonce_odr hidden noundef ptr @_ZNK17AbstractAssembler12code_sectionEv(ptr noundef nonnull align 8 dereferenceable(24) %0) #1 comdat align 2 {
  %2 = alloca ptr, align 8
  store ptr %0, ptr %2, align 8
  %3 = load ptr, ptr %2, align 8
  %4 = getelementptr inbounds %class.AbstractAssembler, ptr %3, i32 0, i32 1
  %5 = load ptr, ptr %4, align 8
  ret ptr %5
}

; Function Attrs: mustprogress nounwind uwtable
define linkonce_odr hidden noundef ptr @_ZNK17AbstractAssembler2pcEv(ptr noundef nonnull align 8 dereferenceable(24) %0) #1 comdat align 2 {
  %2 = alloca ptr, align 8
  store ptr %0, ptr %2, align 8
  %3 = load ptr, ptr %2, align 8
  %4 = call noundef ptr @_ZNK17AbstractAssembler12code_sectionEv(ptr noundef nonnull align 8 dereferenceable(24) %3)
  %5 = call noundef ptr @_ZNK11CodeSection3endEv(ptr noundef nonnull align 8 dereferenceable(88) %4)
  ret ptr %5
}

; Function Attrs: mustprogress nounwind uwtable
define hidden noundef ptr @_ZN13StubGenerator30generate_vector_byte_perm_maskEPKc(ptr noundef nonnull align 8 dereferenceable(24) %0, ptr noundef %1) #1 align 2 {
  %3 = alloca ptr, align 8
  %4 = alloca ptr, align 8
  %5 = alloca %class.StubCodeMark, align 8
  %6 = alloca ptr, align 8
  store ptr %0, ptr %3, align 8
  store ptr %1, ptr %4, align 8
  %7 = load ptr, ptr %3, align 8
  %8 = getelementptr inbounds %class.StubCodeGenerator, ptr %7, i32 0, i32 2
  %9 = load ptr, ptr %8, align 8
  %10 = load i64, ptr @CodeEntryAlignment, align 8
  %11 = trunc i64 %10 to i32
  call void @_ZN14MacroAssembler5alignEj(ptr noundef nonnull align 8 dereferenceable(40) %9, i32 noundef %11)
  %12 = load ptr, ptr %4, align 8
  call void @_ZN12StubCodeMarkC1EP17StubCodeGeneratorPKcS3_(ptr noundef nonnull align 8 dereferenceable(16) %5, ptr noundef %7, ptr noundef @.str, ptr noundef %12)
  %13 = getelementptr inbounds %class.StubCodeGenerator, ptr %7, i32 0, i32 2
  %14 = load ptr, ptr %13, align 8
  %15 = call noundef ptr @_ZNK17AbstractAssembler2pcEv(ptr noundef nonnull align 8 dereferenceable(24) %14)
  store ptr %15, ptr %6, align 8
  %16 = getelementptr inbounds %class.StubCodeGenerator, ptr %7, i32 0, i32 2
  %17 = load ptr, ptr %16, align 8
  call void @_ZN9Assembler11emit_data64ElN9relocInfo9relocTypeEi(ptr noundef nonnull align 8 dereferenceable(40) %17, i64 noundef 1, i32 noundef 0, i32 noundef 0)
  %18 = getelementptr inbounds %class.StubCodeGenerator, ptr %7, i32 0, i32 2
  %19 = load ptr, ptr %18, align 8
  call void @_ZN9Assembler11emit_data64ElN9relocInfo9relocTypeEi(ptr noundef nonnull align 8 dereferenceable(40) %19, i64 noundef 3, i32 noundef 0, i32 noundef 0)
  %20 = getelementptr inbounds %class.StubCodeGenerator, ptr %7, i32 0, i32 2
  %21 = load ptr, ptr %20, align 8
  call void @_ZN9Assembler11emit_data64ElN9relocInfo9relocTypeEi(ptr noundef nonnull align 8 dereferenceable(40) %21, i64 noundef 5, i32 noundef 0, i32 noundef 0)
  %22 = getelementptr inbounds %class.StubCodeGenerator, ptr %7, i32 0, i32 2
  %23 = load ptr, ptr %22, align 8
  call void @_ZN9Assembler11emit_data64ElN9relocInfo9relocTypeEi(ptr noundef nonnull align 8 dereferenceable(40) %23, i64 noundef 7, i32 noundef 0, i32 noundef 0)
  %24 = getelementptr inbounds %class.StubCodeGenerator, ptr %7, i32 0, i32 2
  %25 = load ptr, ptr %24, align 8
  call void @_ZN9Assembler11emit_data64ElN9relocInfo9relocTypeEi(ptr noundef nonnull align 8 dereferenceable(40) %25, i64 noundef 0, i32 noundef 0, i32 noundef 0)
  %26 = getelementptr inbounds %class.StubCodeGenerator, ptr %7, i32 0, i32 2
  %27 = load ptr, ptr %26, align 8
  call void @_ZN9Assembler11emit_data64ElN9relocInfo9relocTypeEi(ptr noundef nonnull align 8 dereferenceable(40) %27, i64 noundef 2, i32 noundef 0, i32 noundef 0)
  %28 = getelementptr inbounds %class.StubCodeGenerator, ptr %7, i32 0, i32 2
  %29 = load ptr, ptr %28, align 8
  call void @_ZN9Assembler11emit_data64ElN9relocInfo9relocTypeEi(ptr noundef nonnull align 8 dereferenceable(40) %29, i64 noundef 4, i32 noundef 0, i32 noundef 0)
  %30 = getelementptr inbounds %class.StubCodeGenerator, ptr %7, i32 0, i32 2
  %31 = load ptr, ptr %30, align 8
  call void @_ZN9Assembler11emit_data64ElN9relocInfo9relocTypeEi(ptr noundef nonnull align 8 dereferenceable(40) %31, i64 noundef 6, i32 noundef 0, i32 noundef 0)
  %32 = load ptr, ptr %6, align 8
  call void @_ZN12StubCodeMarkD1Ev(ptr noundef nonnull align 8 dereferenceable(16) %5) #7
  ret ptr %32
}